; Function Attrs: mustprogress uwtable
define void @_ZN6icu_777Package11extractItemEPKcic(ptr noundef nonnull readonly align 8 captures(none) dereferenceable(201237) %0, ptr noundef %1, i32 noundef %2, i8 noundef signext %3) local_unnamed_addr #13 align 2 {
  %5 = getelementptr inbounds nuw i8, ptr %0, i64 1184
  %6 = load ptr, ptr %5, align 8, !tbaa !30
  %7 = sext i32 %2 to i64
  %8 = getelementptr inbounds %"struct.icu_77::Item", ptr %6, i64 %7
  %9 = load ptr, ptr %8, align 8, !tbaa !54
  tail call void @_ZN6icu_777Package11extractItemEPKcS2_ic(ptr noundef nonnull align 8 dereferenceable(201237) %0, ptr noundef %1, ptr noundef %9, i32 noundef %2, i8 noundef signext %3)
  ret void
}